target datalayout = "e-m:e-p270:32:32-p271:32:32-p272:64:64-i64:64-i128:128-f80:128-n8:16:32:64-S128"
target triple = "x86_64-pc-linux-gnu"

%"class.icu_77::InputText" = type <{ ptr, i32, [4 x i8], ptr, i8, [7 x i8], ptr, ptr, i32, [4 x i8] }>

; Function Attrs: mustprogress uwtable
define void @_ZN6icu_779InputText19setDeclaredEncodingEPKci(ptr noundef nonnull align 8 dereferenceable(52) %0, ptr noundef %1, i32 noundef %2) #0 align 2 {
  %4 = alloca ptr, align 8
  %5 = alloca ptr, align 8
  %6 = alloca i32, align 4
  store ptr %0, ptr %4, align 8, !tbaa !3
  store ptr %1, ptr %5, align 8, !tbaa !20
  store i32 %2, ptr %6, align 4, !tbaa !21
  %7 = load ptr, ptr %4, align 8
  %8 = load ptr, ptr %5, align 8, !tbaa !20
  %9 = icmp ne ptr %8, null
  br i1 %9, label %10, label %33

10:                                               ; preds = %3
  %11 = load i32, ptr %6, align 4, !tbaa !21
  %12 = icmp eq i32 %11, -1
  br i1 %12, label %13, label %17

13:                                               ; preds = %10
  %14 = load ptr, ptr %5, align 8, !tbaa !20
  %15 = call i64 @strlen(ptr noundef %14) #12
  %16 = trunc i64 %15 to i32
  store i32 %16, ptr %6, align 4, !tbaa !21
  br label %17

17:                                               ; preds = %13, %10
  %18 = load i32, ptr %6, align 4, !tbaa !21
  %19 = add nsw i32 %18, 1
  store i32 %19, ptr %6, align 4, !tbaa !21
  %20 = getelementptr inbounds nuw %"class.icu_77::InputText", ptr %7, i32 0, i32 6
  %21 = load ptr, ptr %20, align 8, !tbaa !15
  call void @uprv_free_77(ptr noundef %21)
  %22 = load i32, ptr %6, align 4, !tbaa !21
  %23 = sext i32 %22 to i64
  %24 = mul i64 %23, 1
  %25 = call noalias ptr @uprv_malloc_77(i64 noundef %24) #9
  %26 = getelementptr inbounds nuw %"class.icu_77::InputText", ptr %7, i32 0, i32 6
  store ptr %25, ptr %26, align 8, !tbaa !15
  %27 = getelementptr inbounds nuw %"class.icu_77::InputText", ptr %7, i32 0, i32 6
  %28 = load ptr, ptr %27, align 8, !tbaa !15
  %29 = load ptr, ptr %5, align 8, !tbaa !20
  %30 = load i32, ptr %6, align 4, !tbaa !21
  %31 = sext i32 %30 to i64
  %32 = call ptr @strncpy(ptr noundef %28, ptr noundef %29, i64 noundef %31) #11
  br label %33

33:                                               ; preds = %17, %3
  ret void
}