; Function Attrs: mustprogress uwtable
define void @_ZN6icu_779InputText19setDeclaredEncodingEPKci(ptr noundef nonnull align 8 captures(none) dereferenceable(52) %0, ptr noundef readonly %1, i32 noundef %2) local_unnamed_addr #0 align 2 {
  %.not = icmp eq ptr %1, null
  br i1 %.not, label %16, label %4

4:                                                ; preds = %3
  %5 = icmp eq i32 %2, -1
  br i1 %5, label %6, label %9

6:                                                ; preds = %4
  %7 = tail call i64 @strlen(ptr noundef nonnull dereferenceable(1) %1) #16
  %8 = trunc i64 %7 to i32
  br label %9

9:                                                ; preds = %6, %4
  %.0 = phi i32 [ %8, %6 ], [ %2, %4 ]
  %10 = add nsw i32 %.0, 1
  %11 = getelementptr inbounds nuw i8, ptr %0, i64 32
  %12 = load ptr, ptr %11, align 8, !tbaa !14
  tail call void @uprv_free_77(ptr noundef %12)
  %13 = sext i32 %10 to i64
  %14 = tail call noalias ptr @uprv_malloc_77(i64 noundef %13) #13
  store ptr %14, ptr %11, align 8, !tbaa !14
  %15 = tail call ptr @strncpy(ptr noundef %14, ptr noundef nonnull %1, i64 noundef %13) #15
  br label %16

16:                                               ; preds = %9, %3
  ret void
}